Certificate:
    Data:
        Version: 3 (0x2)
        Serial Number:
            32:cd:89:b6:35:e1:6b:5b:f2:09:19:f3:f6:52:a6:63:fe:ee:36:55
        Signature Algorithm: sha256WithRSAEncryption
        Issuer: C=AU, ST=Some-State, O=Internet Widgits Pty Ltd
        Validity
            Not Before: Jan 27 09:17:20 2024 GMT
            Not After : Feb 26 09:17:20 2024 GMT
        Subject: C=AU, ST=Some-State, O=Internet Widgits Pty Ltd
        Subject Public Key Info:
            Public Key Algorithm: rsaEncryption
                Public-Key: (4096 bit)
                Modulus:
                    00:ce:7d:1f:69:b5:47:2a:8a:06:5b:0b:8f:55:76:
                    bd:dc:f0:f0:60:db:11:b5:f8:72:92:6a:b9:81:57:
                    b6:fd:2f:d8:50:f9:15:57:d1:4a:61:c5:03:7b:dc:
                    1e:dd:5e:26:b8:4b:00:82:d5:c8:c6:a4:72:bf:f6:
                    b6:20:23:af:7a:4e:ba:9a:f3:ec:7b:bd:2e:bd:71:
                    c2:94:7c:6e:8c:07:3a:6f:61:e7:48:59:5e:84:ce:
                    c4:17:13:0d:55:25:c3:8d:93:60:28:7b:6d:7a:41:
                    5d:35:99:02:29:cd:7d:bf:8b:bb:ef:f1:8a:d3:41:
                    c6:47:8d:5b:a8:c7:20:a3:81:e5:9c:8b:87:96:3f:
                    cd:6a:8d:a6:1e:cb:49:94:f8:5e:e6:ec:34:67:1e:
                    2c:45:26:bc:f3:3b:f5:de:87:39:e0:86:45:4a:3a:
                    2b:2d:21:12:68:42:4c:be:40:83:85:da:0d:fa:73:
                    66:a5:83:af:99:e0:0c:06:47:7e:3f:5b:dc:de:3a:
                    62:42:d0:7d:f3:be:f6:17:0e:8c:6f:15:32:d0:1a:
                    09:48:3f:70:19:b8:5b:17:8b:33:f6:39:b2:46:5f:
                    aa:7e:2a:1b:f5:5d:73:4b:0f:7d:6e:b2:07:d4:6b:
                    01:d3:f1:0a:09:b1:65:ba:24:15:8c:e7:45:92:18:
                    9d:85:b7:70:16:51:86:68:06:f3:1e:db:f2:18:89:
                    f8:09:14:20:6c:43:c9:1f:15:60:26:07:4a:74:a4:
                    20:c4:70:47:af:87:cb:4a:51:81:c4:ee:43:2f:de:
                    82:a8:ba:40:7c:ec:4e:66:25:39:0a:e8:7d:a5:ab:
                    83:7c:a1:ed:2c:9d:19:28:8e:a6:15:81:66:23:40:
                    16:4c:ea:4a:94:dc:6e:8e:8f:b9:fb:9b:17:89:fc:
                    5e:0b:80:2a:42:75:59:ac:99:ce:dd:c0:b0:d7:57:
                    f3:2e:68:b7:4f:b1:78:f5:10:12:20:06:ac:4b:66:
                    d7:3f:5c:2c:3b:4a:1e:76:2f:25:49:f6:24:de:01:
                    0c:42:47:b8:e4:67:b2:a7:d4:86:aa:d7:78:94:54:
                    a8:34:a8:c4:d2:32:76:ea:71:68:a4:8c:13:58:b5:
                    5c:45:2c:b0:cc:3b:92:75:03:9d:86:73:2c:53:8d:
                    2c:eb:c6:a4:5a:eb:48:0d:9a:e0:bf:1b:0c:a6:a5:
                    ad:fa:7e:85:e5:bd:92:4f:49:9f:40:6c:de:3b:9f:
                    d8:da:a3:18:fe:e6:7e:37:09:80:9f:0c:b0:79:d0:
                    7c:15:91:46:a1:c0:c7:97:4e:da:2d:18:56:9d:40:
                    f5:4a:c0:c1:7e:ff:e1:7b:9a:f9:bd:a7:85:8b:78:
                    4c:d8:41
                Exponent: 65537 (0x10001)
        X509v3 extensions:
            X509v3 Subject Key Identifier: 
                52:26:50:62:48:25:58:4D:98:0A:C1:C5:94:E3:F9:B8:74:2E:77:87
            X509v3 Authority Key Identifier: 
                52:26:50:62:48:25:58:4D:98:0A:C1:C5:94:E3:F9:B8:74:2E:77:87
            X509v3 Basic Constraints: critical
                CA:TRUE
    Signature Algorithm: sha256WithRSAEncryption
    Signature Value:
        17:8f:dc:c8:42:e5:b1:df:97:2f:16:1a:89:23:8e:98:c1:97:
        2d:98:b4:b1:d3:8a:2b:df:1d:17:01:0e:52:83:a5:f5:02:e0:
        a7:99:7e:ab:29:e4:f1:a0:ad:ee:4b:7e:13:e3:74:eb:8f:20:
        29:24:47:36:0f:2c:b3:d6:f0:01:2b:60:a2:70:69:d0:be:1d:
        bf:8a:bf:bf:fd:e2:a2:a2:a3:ab:c2:e0:b4:aa:c9:20:00:d9:
        fb:5f:36:8d:db:48:82:74:01:b9:33:f6:6b:b2:b9:bd:cd:a4:
        26:80:27:f3:82:21:88:5b:ae:1e:f2:96:b8:3a:73:1f:5a:2a:
        ca:66:1f:46:c5:31:0b:8a:c3:9d:25:82:1f:f2:ee:da:17:e0:
        d9:8a:a5:56:28:60:9c:93:03:fb:f2:a9:5f:d1:61:61:e5:a9:
        61:88:f3:08:69:b2:3d:72:5e:c7:a7:15:e5:4b:67:c2:69:44:
        78:c1:e2:f1:b5:9b:dd:6c:5e:74:36:b5:34:49:68:11:dc:0b:
        17:a1:31:40:bd:9e:86:7e:29:50:a3:3f:1d:1d:36:a1:91:1d:
        e0:11:5f:58:11:6a:2d:27:9d:eb:5c:bc:a6:b6:0b:cc:15:79:
        4c:18:0c:ee:f9:c5:a9:50:2c:92:ac:41:93:77:c7:40:72:1a:
        6f:00:94:6f:8a:f5:82:ea:78:2c:be:e9:d0:02:7c:b4:fe:4b:
        17:53:e4:cd:31:fc:17:6b:7b:86:2a:d0:78:ed:72:f9:d8:c9:
        d5:91:4e:7e:57:86:da:46:06:a8:8a:d2:5e:23:3e:9e:c7:80:
        5d:e8:42:6a:a9:66:8c:2e:74:71:e2:dc:4a:01:76:45:ae:9b:
        85:f1:25:e4:c9:66:2c:aa:a9:0c:20:c0:db:c5:cd:72:4c:95:
        48:85:3e:05:fa:11:5a:ac:62:ee:ad:fc:fa:b8:0a:c8:02:af:
        f9:35:0f:74:a7:4a:6c:5f:90:3f:c3:75:5d:1e:f6:07:ba:aa:
        3c:d7:7c:da:ff:d1:0e:ee:7f:43:79:72:1d:89:c7:92:28:74:
        7e:ee:70:b2:b5:e8:f5:27:41:e9:ec:a6:d3:25:d1:f5:0f:a7:
        71:c7:45:6c:14:be:16:22:30:3c:1c:c6:1f:62:5e:d5:71:3c:
        77:48:3b:aa:18:03:b8:55:c7:b9:36:62:32:76:26:2d:c1:57:
        33:d4:a6:79:3a:de:9b:a9:80:53:c6:a6:91:f3:c1:af:da:95:
        f9:58:1c:d4:b1:87:12:33:fc:8a:29:b5:f4:bf:3e:3c:65:31:
        6f:a7:58:3f:7d:8d:84:ca:87:42:d7:c2:0b:19:1a:05:74:80:
        16:0f:7b:c7:5a:76:5d:a9
-----BEGIN CERTIFICATE-----
MIIFazCCA1OgAwIBAgIUMs2JtjXha1vyCRnz9lKmY/7uNlUwDQYJKoZIhvcNAQEL
BQAwRTELMAkGA1UEBhMCQVUxEzARBgNVBAgMClNvbWUtU3RhdGUxITAfBgNVBAoM
GEludGVybmV0IFdpZGdpdHMgUHR5IEx0ZDAeFw0yNDAxMjcwOTE3MjBaFw0yNDAy
MjYwOTE3MjBaMEUxCzAJBgNVBAYTAkFVMRMwEQYDVQQIDApTb21lLVN0YXRlMSEw
HwYDVQQKDBhJbnRlcm5ldCBXaWRnaXRzIFB0eSBMdGQwggIiMA0GCSqGSIb3DQEB
AQUAA4ICDwAwggIKAoICAQDOfR9ptUcqigZbC49Vdr3c8PBg2xG1+HKSarmBV7b9
L9hQ+RVX0UphxQN73B7dXia4SwCC1cjGpHK/9rYgI696Trqa8+x7vS69ccKUfG6M
BzpvYedIWV6EzsQXEw1VJcONk2Aoe216QV01mQIpzX2/i7vv8YrTQcZHjVuoxyCj
geWci4eWP81qjaYey0mU+F7m7DRnHixFJrzzO/XehznghkVKOistIRJoQky+QIOF
2g36c2alg6+Z4AwGR34/W9zeOmJC0H3zvvYXDoxvFTLQGglIP3AZuFsXizP2ObJG
X6p+Khv1XXNLD31usgfUawHT8QoJsWW6JBWM50WSGJ2Ft3AWUYZoBvMe2/IYifgJ
FCBsQ8kfFWAmB0p0pCDEcEevh8tKUYHE7kMv3oKoukB87E5mJTkK6H2lq4N8oe0s
nRkojqYVgWYjQBZM6kqU3G6Oj7n7mxeJ/F4LgCpCdVmsmc7dwLDXV/MuaLdPsXj1
EBIgBqxLZtc/XCw7Sh52LyVJ9iTeAQxCR7jkZ7Kn1Iaq13iUVKg0qMTSMnbqcWik
jBNYtVxFLLDMO5J1A52GcyxTjSzrxqRa60gNmuC/Gwympa36foXlvZJPSZ9AbN47
n9jaoxj+5n43CYCfDLB50HwVkUahwMeXTtotGFadQPVKwMF+/+F7mvm9p4WLeEzY
QQIDAQABo1MwUTAdBgNVHQ4EFgQUUiZQYkglWE2YCsHFlOP5uHQud4cwHwYDVR0j
BBgwFoAUUiZQYkglWE2YCsHFlOP5uHQud4cwDwYDVR0TAQH/BAUwAwEB/zANBgkq
hkiG9w0BAQsFAAOCAgEAF4/cyELlsd+XLxYaiSOOmMGXLZi0sdOKK98dFwEOUoOl
9QLgp5l+qynk8aCt7kt+E+N0648gKSRHNg8ss9bwAStgonBp0L4dv4q/v/3ioqKj
q8LgtKrJIADZ+182jdtIgnQBuTP2a7K5vc2kJoAn84IhiFuuHvKWuDpzH1oqymYf
RsUxC4rDnSWCH/Lu2hfg2YqlVihgnJMD+/KpX9FhYeWpYYjzCGmyPXJex6cV5Utn
wmlEeMHi8bWb3WxedDa1NEloEdwLF6ExQL2ehn4pUKM/HR02oZEd4BFfWBFqLSed
61y8prYLzBV5TBgM7vnFqVAskqxBk3fHQHIabwCUb4r1gup4LL7p0AJ8tP5LF1Pk
zTH8F2t7hirQeO1y+djJ1ZFOfleG2kYGqIrSXiM+nseAXehCaqlmjC50ceLcSgF2
Ra6bhfEl5MlmLKqpDCDA28XNckyVSIU+BfoRWqxi7q38+rgKyAKv+TUPdKdKbF+Q
P8N1XR72B7qqPNd82v/RDu5/Q3lyHYnHkih0fu5wsrXo9SdB6eym0yXR9Q+nccdF
bBS+FiIwPBzGH2Je1XE8d0g7qhgDuFXHuTZiMnYmLcFXM9SmeTrem6mAU8amkfPB
r9qV+Vgc1LGHEjP8iim19L8+PGUxb6dYP32NhMqHQtfCCxkaBXSAFg97x1p2Xak=
-----END CERTIFICATE-----
